target datalayout = "e-m:e-p270:32:32-p271:32:32-p272:64:64-i64:64-i128:128-f80:128-n8:16:32:64-S128"
target triple = "x86_64-pc-linux-gnu"

%struct.point_t = type { float, float }

; Function Attrs: nounwind uwtable
define dso_local void @draw_line(ptr noundef %0, <2 x float> %1, <2 x float> %2) #3 {
  %4 = alloca %struct.point_t, align 4
  %5 = alloca %struct.point_t, align 4
  %6 = alloca ptr, align 8
  store <2 x float> %1, ptr %4, align 4
  store <2 x float> %2, ptr %5, align 4
  store ptr %0, ptr %6, align 8, !tbaa !7
  %7 = load ptr, ptr %6, align 8, !tbaa !7
  %8 = getelementptr inbounds nuw %struct.point_t, ptr %4, i32 0, i32 0
  %9 = load float, ptr %8, align 4, !tbaa !16
  %10 = fpext reassoc nsz arcp contract afn float %9 to double
  %11 = getelementptr inbounds nuw %struct.point_t, ptr %4, i32 0, i32 1
  %12 = load float, ptr %11, align 4, !tbaa !19
  %13 = fpext reassoc nsz arcp contract afn float %12 to double
  call void @cairo_move_to(ptr noundef %7, double noundef %10, double noundef %13)
  %14 = load ptr, ptr %6, align 8, !tbaa !7
  %15 = getelementptr inbounds nuw %struct.point_t, ptr %5, i32 0, i32 0
  %16 = load float, ptr %15, align 4, !tbaa !16
  %17 = fpext reassoc nsz arcp contract afn float %16 to double
  %18 = getelementptr inbounds nuw %struct.point_t, ptr %5, i32 0, i32 1
  %19 = load float, ptr %18, align 4, !tbaa !19
  %20 = fpext reassoc nsz arcp contract afn float %19 to double
  call void @cairo_line_to(ptr noundef %14, double noundef %17, double noundef %20)
  ret void
}