; Function Attrs: nounwind uwtable
define dso_local void @draw_line(ptr noundef %0, <2 x float> %1, <2 x float> %2) local_unnamed_addr #3 {
  %.sroa.02.0.vec.extract = extractelement <2 x float> %1, i64 0
  %4 = fpext reassoc nsz arcp contract afn float %.sroa.02.0.vec.extract to double
  %.sroa.02.4.vec.extract = extractelement <2 x float> %1, i64 1
  %5 = fpext reassoc nsz arcp contract afn float %.sroa.02.4.vec.extract to double
  tail call void @cairo_move_to(ptr noundef %0, double noundef %4, double noundef %5) #8
  %.sroa.0.0.vec.extract = extractelement <2 x float> %2, i64 0
  %6 = fpext reassoc nsz arcp contract afn float %.sroa.0.0.vec.extract to double
  %.sroa.0.4.vec.extract = extractelement <2 x float> %2, i64 1
  %7 = fpext reassoc nsz arcp contract afn float %.sroa.0.4.vec.extract to double
  tail call void @cairo_line_to(ptr noundef %0, double noundef %6, double noundef %7) #8
  ret void
}